target datalayout = "e-m:e-p270:32:32-p271:32:32-p272:64:64-i64:64-i128:128-f80:128-n8:16:32:64-S128"
target triple = "x86_64-pc-linux-gnu"

%struct.strbuf = type { i64, i64, ptr }
%struct.json_writer = type { %struct.strbuf, %struct.strbuf, i8 }

; Function Attrs: nounwind uwtable
define dso_local void @jw_array_string(ptr noundef %0, ptr noundef %1) #0 {
  %3 = alloca ptr, align 8
  %4 = alloca ptr, align 8
  store ptr %0, ptr %3, align 8, !tbaa !4
  store ptr %1, ptr %4, align 8, !tbaa !12
  %5 = load ptr, ptr %3, align 8, !tbaa !4
  call void @array_common(ptr noundef %5)
  %6 = load ptr, ptr %3, align 8, !tbaa !4
  %7 = getelementptr inbounds nuw %struct.json_writer, ptr %6, i32 0, i32 0
  %8 = load ptr, ptr %4, align 8, !tbaa !12
  call void @append_quoted_string(ptr noundef %7, ptr noundef %8)
  ret void
}

; Function Attrs: nounwind uwtable
define dso_local void @jw_array_argc_argv(ptr noundef %0, i32 noundef %1, ptr noundef %2) #0 {
  %4 = alloca ptr, align 8
  %5 = alloca i32, align 4
  %6 = alloca ptr, align 8
  %7 = alloca i32, align 4
  store ptr %0, ptr %4, align 8, !tbaa !4
  store i32 %1, ptr %5, align 4, !tbaa !9
  store ptr %2, ptr %6, align 8, !tbaa !27
  call void @llvm.lifetime.start.p0(i64 4, ptr %7) #7
  store i32 0, ptr %7, align 4, !tbaa !9
  br label %8

8:                                                ; preds = %19, %3
  %9 = load i32, ptr %7, align 4, !tbaa !9
  %10 = load i32, ptr %5, align 4, !tbaa !9
  %11 = icmp slt i32 %9, %10
  br i1 %11, label %12, label %22

12:                                               ; preds = %8
  %13 = load ptr, ptr %4, align 8, !tbaa !4
  %14 = load ptr, ptr %6, align 8, !tbaa !27
  %15 = load i32, ptr %7, align 4, !tbaa !9
  %16 = sext i32 %15 to i64
  %17 = getelementptr inbounds ptr, ptr %14, i64 %16
  %18 = load ptr, ptr %17, align 8, !tbaa !12
  call void @jw_array_string(ptr noundef %13, ptr noundef %18)
  br label %19

19:                                               ; preds = %12
  %20 = load i32, ptr %7, align 4, !tbaa !9
  %21 = add nsw i32 %20, 1
  store i32 %21, ptr %7, align 4, !tbaa !9
  br label %8, !llvm.loop !29

22:                                               ; preds = %8
  call void @llvm.lifetime.end.p0(i64 4, ptr %7) #7
  ret void
}